target datalayout = "e-m:e-p270:32:32-p271:32:32-p272:64:64-i64:64-i128:128-f80:128-n8:16:32:64-S128"
target triple = "x86_64-pc-linux-gnu"

%struct.lua_State = type { i8, i8, i8, i8, i8, i8, i8, ptr, ptr, ptr, ptr, ptr, ptr, ptr, ptr, i32, i32, i16, i16, i32, ptr, ptr, ptr, ptr, ptr }
%struct.CallInfo = type { ptr, ptr, ptr, ptr, i32, i32 }
%struct.lua_TValue = type { %union.Value, [1 x i32], i32 }
%union.Value = type { ptr }
%struct.Closure = type { i8, i8, i8, i8, i8, i8, i8, ptr, ptr, %union.anon.1 }
%union.anon.1 = type { %struct.anon.2 }
%struct.anon.2 = type { ptr, ptr, ptr, [1 x %struct.lua_TValue] }
%struct.TString = type { i8, i8, i8, i16, ptr, i32, i32, [1 x i8] }

@.str.2 = private unnamed_addr constant [51 x i8] c"invalid argument #%d to '%s' (%s expected, got %s)\00", align 1
@.str.3 = private unnamed_addr constant [43 x i8] c"invalid argument #%d (%s expected, got %s)\00", align 1
@.str.4 = private unnamed_addr constant [43 x i8] c"missing argument #%d to '%s' (%s expected)\00", align 1
@.str.5 = private unnamed_addr constant [35 x i8] c"missing argument #%d (%s expected)\00", align 1
@.str.21 = private unnamed_addr constant [11 x i8] c"__namecall\00", align 1

; Function Attrs: mustprogress nounwind uwtable
define internal noundef ptr @_ZL12currfuncnameP9lua_State(ptr noundef %0) #1 {
  %2 = alloca ptr, align 8
  %3 = alloca ptr, align 8
  %4 = alloca ptr, align 8
  %5 = alloca ptr, align 8
  store ptr %0, ptr %3, align 8
  %6 = load ptr, ptr %3, align 8
  %7 = getelementptr inbounds %struct.lua_State, ptr %6, i32 0, i32 10
  %8 = load ptr, ptr %7, align 8
  %9 = load ptr, ptr %3, align 8
  %10 = getelementptr inbounds %struct.lua_State, ptr %9, i32 0, i32 14
  %11 = load ptr, ptr %10, align 8
  %12 = icmp ugt ptr %8, %11
  br i1 %12, label %13, label %21

13:                                               ; preds = %1
  %14 = load ptr, ptr %3, align 8
  %15 = getelementptr inbounds %struct.lua_State, ptr %14, i32 0, i32 10
  %16 = load ptr, ptr %15, align 8
  %17 = getelementptr inbounds %struct.CallInfo, ptr %16, i32 0, i32 1
  %18 = load ptr, ptr %17, align 8
  %19 = getelementptr inbounds %struct.lua_TValue, ptr %18, i32 0, i32 0
  %20 = load ptr, ptr %19, align 8
  br label %22

21:                                               ; preds = %1
  br label %22

22:                                               ; preds = %21, %13
  %23 = phi ptr [ %20, %13 ], [ null, %21 ]
  store ptr %23, ptr %4, align 8
  %24 = load ptr, ptr %4, align 8
  %25 = icmp ne ptr %24, null
  br i1 %25, label %26, label %37

26:                                               ; preds = %22
  %27 = load ptr, ptr %4, align 8
  %28 = getelementptr inbounds %struct.Closure, ptr %27, i32 0, i32 3
  %29 = load i8, ptr %28, align 1
  %30 = icmp ne i8 %29, 0
  br i1 %30, label %31, label %37

31:                                               ; preds = %26
  %32 = load ptr, ptr %4, align 8
  %33 = getelementptr inbounds %struct.Closure, ptr %32, i32 0, i32 9
  %34 = getelementptr inbounds %struct.anon.2, ptr %33, i32 0, i32 2
  %35 = load ptr, ptr %34, align 8
  %36 = getelementptr inbounds i8, ptr %35, i64 0
  br label %38

37:                                               ; preds = %26, %22
  br label %38

38:                                               ; preds = %37, %31
  %39 = phi ptr [ %36, %31 ], [ null, %37 ]
  store ptr %39, ptr %5, align 8
  %40 = load ptr, ptr %5, align 8
  %41 = icmp ne ptr %40, null
  br i1 %41, label %42, label %60

42:                                               ; preds = %38
  %43 = load ptr, ptr %5, align 8
  %44 = call i32 @strcmp(ptr noundef %43, ptr noundef @.str.21) #9
  %45 = icmp eq i32 %44, 0
  br i1 %45, label %46, label %60

46:                                               ; preds = %42
  %47 = load ptr, ptr %3, align 8
  %48 = getelementptr inbounds %struct.lua_State, ptr %47, i32 0, i32 23
  %49 = load ptr, ptr %48, align 8
  %50 = icmp ne ptr %49, null
  br i1 %50, label %51, label %57

51:                                               ; preds = %46
  %52 = load ptr, ptr %3, align 8
  %53 = getelementptr inbounds %struct.lua_State, ptr %52, i32 0, i32 23
  %54 = load ptr, ptr %53, align 8
  %55 = getelementptr inbounds %struct.TString, ptr %54, i32 0, i32 7
  %56 = getelementptr inbounds [1 x i8], ptr %55, i64 0, i64 0
  br label %58

57:                                               ; preds = %46
  br label %58

58:                                               ; preds = %57, %51
  %59 = phi ptr [ %56, %51 ], [ null, %57 ]
  store ptr %59, ptr %2, align 8
  br label %62

60:                                               ; preds = %42, %38
  %61 = load ptr, ptr %5, align 8
  store ptr %61, ptr %2, align 8
  br label %62

62:                                               ; preds = %60, %58
  %63 = load ptr, ptr %2, align 8
  ret ptr %63
}

; Function Attrs: mustprogress noreturn uwtable
define dso_local void @_Z15luaL_typeerrorLP9lua_StateiPKc(ptr noundef %0, i32 noundef %1, ptr noundef %2) #0 {
  %4 = alloca ptr, align 8
  %5 = alloca i32, align 4
  %6 = alloca ptr, align 8
  %7 = alloca ptr, align 8
  %8 = alloca ptr, align 8
  store ptr %0, ptr %4, align 8
  store i32 %1, ptr %5, align 4
  store ptr %2, ptr %6, align 8
  %9 = load ptr, ptr %4, align 8
  %10 = call noundef ptr @_ZL12currfuncnameP9lua_State(ptr noundef %9)
  store ptr %10, ptr %7, align 8
  %11 = load ptr, ptr %4, align 8
  %12 = load i32, ptr %5, align 4
  %13 = call noundef ptr @_Z13luaA_toobjectP9lua_Statei(ptr noundef %11, i32 noundef %12)
  store ptr %13, ptr %8, align 8
  %14 = load ptr, ptr %8, align 8
  %15 = icmp ne ptr %14, null
  br i1 %15, label %16, label %34

16:                                               ; preds = %3
  %17 = load ptr, ptr %7, align 8
  %18 = icmp ne ptr %17, null
  br i1 %18, label %19, label %27

19:                                               ; preds = %16
  %20 = load ptr, ptr %4, align 8
  %21 = load i32, ptr %5, align 4
  %22 = load ptr, ptr %7, align 8
  %23 = load ptr, ptr %6, align 8
  %24 = load ptr, ptr %4, align 8
  %25 = load ptr, ptr %8, align 8
  %26 = call noundef ptr @_Z16luaT_objtypenameP9lua_StatePK10lua_TValue(ptr noundef %24, ptr noundef %25)
  call void (ptr, ptr, ...) @_Z11luaL_errorLP9lua_StatePKcz(ptr noundef %20, ptr noundef @.str.2, i32 noundef %21, ptr noundef %22, ptr noundef %23, ptr noundef %26) #8
  unreachable

27:                                               ; preds = %16
  %28 = load ptr, ptr %4, align 8
  %29 = load i32, ptr %5, align 4
  %30 = load ptr, ptr %6, align 8
  %31 = load ptr, ptr %4, align 8
  %32 = load ptr, ptr %8, align 8
  %33 = call noundef ptr @_Z16luaT_objtypenameP9lua_StatePK10lua_TValue(ptr noundef %31, ptr noundef %32)
  call void (ptr, ptr, ...) @_Z11luaL_errorLP9lua_StatePKcz(ptr noundef %28, ptr noundef @.str.3, i32 noundef %29, ptr noundef %30, ptr noundef %33) #8
  unreachable

34:                                               ; preds = %3
  %35 = load ptr, ptr %7, align 8
  %36 = icmp ne ptr %35, null
  br i1 %36, label %37, label %42

37:                                               ; preds = %34
  %38 = load ptr, ptr %4, align 8
  %39 = load i32, ptr %5, align 4
  %40 = load ptr, ptr %7, align 8
  %41 = load ptr, ptr %6, align 8
  call void (ptr, ptr, ...) @_Z11luaL_errorLP9lua_StatePKcz(ptr noundef %38, ptr noundef @.str.4, i32 noundef %39, ptr noundef %40, ptr noundef %41) #8
  unreachable

42:                                               ; preds = %34
  %43 = load ptr, ptr %4, align 8
  %44 = load i32, ptr %5, align 4
  %45 = load ptr, ptr %6, align 8
  call void (ptr, ptr, ...) @_Z11luaL_errorLP9lua_StatePKcz(ptr noundef %43, ptr noundef @.str.5, i32 noundef %44, ptr noundef %45) #8
  unreachable
}