; Function Attrs: mustprogress noreturn uwtable
define dso_local void @_Z15luaL_typeerrorLP9lua_StateiPKc(ptr noundef %0, i32 noundef %1, ptr noundef %2) local_unnamed_addr #0 {
  %4 = getelementptr inbounds i8, ptr %0, i64 32
  %5 = load ptr, ptr %4, align 8
  %6 = getelementptr inbounds i8, ptr %0, i64 64
  %7 = load ptr, ptr %6, align 8
  %8 = icmp ugt ptr %5, %7
  br i1 %8, label %9, label %_ZL12currfuncnameP9lua_State.exit

9:                                                ; preds = %3
  %10 = getelementptr inbounds i8, ptr %5, i64 8
  %11 = load ptr, ptr %10, align 8
  %12 = load ptr, ptr %11, align 8
  %.not.i = icmp eq ptr %12, null
  br i1 %.not.i, label %_ZL12currfuncnameP9lua_State.exit, label %13

13:                                               ; preds = %9
  %14 = getelementptr inbounds i8, ptr %12, i64 3
  %15 = load i8, ptr %14, align 1
  %.not16.i = icmp eq i8 %15, 0
  br i1 %.not16.i, label %_ZL12currfuncnameP9lua_State.exit, label %16

16:                                               ; preds = %13
  %17 = getelementptr inbounds i8, ptr %12, i64 40
  %18 = load ptr, ptr %17, align 8
  %.not17.i = icmp eq ptr %18, null
  br i1 %.not17.i, label %_ZL12currfuncnameP9lua_State.exit, label %19

19:                                               ; preds = %16
  %20 = tail call i32 @strcmp(ptr noundef nonnull dereferenceable(1) %18, ptr noundef nonnull dereferenceable(11) @.str.21) #10
  %21 = icmp eq i32 %20, 0
  br i1 %21, label %22, label %_ZL12currfuncnameP9lua_State.exit

22:                                               ; preds = %19
  %23 = getelementptr inbounds i8, ptr %0, i64 112
  %24 = load ptr, ptr %23, align 8
  %.not18.i = icmp eq ptr %24, null
  %25 = getelementptr inbounds i8, ptr %24, i64 24
  %spec.select.i = select i1 %.not18.i, ptr null, ptr %25
  br label %_ZL12currfuncnameP9lua_State.exit

_ZL12currfuncnameP9lua_State.exit:                ; preds = %3, %9, %13, %16, %19, %22
  %.0.i = phi ptr [ %spec.select.i, %22 ], [ %18, %19 ], [ null, %16 ], [ null, %13 ], [ null, %9 ], [ null, %3 ]
  %26 = tail call noundef ptr @_Z13luaA_toobjectP9lua_Statei(ptr noundef nonnull %0, i32 noundef %1)
  %.not = icmp eq ptr %26, null
  %.not24 = icmp eq ptr %.0.i, null
  br i1 %.not, label %31, label %27

27:                                               ; preds = %_ZL12currfuncnameP9lua_State.exit
  %28 = tail call noundef ptr @_Z16luaT_objtypenameP9lua_StatePK10lua_TValue(ptr noundef nonnull %0, ptr noundef nonnull %26)
  br i1 %.not24, label %30, label %29

29:                                               ; preds = %27
  tail call void (ptr, ptr, ...) @_Z11luaL_errorLP9lua_StatePKcz(ptr noundef nonnull %0, ptr noundef nonnull @.str.2, i32 noundef %1, ptr noundef nonnull %.0.i, ptr noundef %2, ptr noundef %28) #11
  unreachable

30:                                               ; preds = %27
  tail call void (ptr, ptr, ...) @_Z11luaL_errorLP9lua_StatePKcz(ptr noundef nonnull %0, ptr noundef nonnull @.str.3, i32 noundef %1, ptr noundef %2, ptr noundef %28) #11
  unreachable

31:                                               ; preds = %_ZL12currfuncnameP9lua_State.exit
  br i1 %.not24, label %33, label %32

32:                                               ; preds = %31
  tail call void (ptr, ptr, ...) @_Z11luaL_errorLP9lua_StatePKcz(ptr noundef nonnull %0, ptr noundef nonnull @.str.4, i32 noundef %1, ptr noundef nonnull %.0.i, ptr noundef %2) #11
  unreachable

33:                                               ; preds = %31
  tail call void (ptr, ptr, ...) @_Z11luaL_errorLP9lua_StatePKcz(ptr noundef nonnull %0, ptr noundef nonnull @.str.5, i32 noundef %1, ptr noundef %2) #11
  unreachable
}